; Function Attrs: mustprogress nofree norecurse nosync nounwind willreturn memory(argmem: write) uwtable
define internal void @_ZN7rocksdb12_GLOBAL__N_116MockWritableFile5FlushERKNS_9IOOptionsEPNS_14IODebugContextE(ptr dead_on_unwind noalias writable writeonly sret(%"class.rocksdb::IOStatus") align 8 captures(none) initializes((0, 6), (8, 16)) %0, ptr nonnull readnone align 8 captures(none) %1, ptr nonnull readnone align 8 captures(none) %2, ptr readnone captures(none) %3) unnamed_addr #17 align 2 personality ptr @__gxx_personality_v0 {
  store i8 0, ptr %0, align 8, !tbaa !114, !alias.scope !633
  %5 = getelementptr inbounds nuw i8, ptr %0, i64 1
  store i8 0, ptr %5, align 1, !tbaa !139, !alias.scope !633
  %6 = getelementptr inbounds nuw i8, ptr %0, i64 2
  %7 = getelementptr inbounds nuw i8, ptr %0, i64 8
  store ptr null, ptr %7, align 8, !tbaa !143, !alias.scope !633
  store i32 0, ptr %6, align 2, !alias.scope !633
  ret void
}